target datalayout = "e-m:e-p270:32:32-p271:32:32-p272:64:64-i64:64-i128:128-f80:128-n8:16:32:64-S128"
target triple = "x86_64-pc-linux-gnu"

@.str.1 = private unnamed_addr constant [50 x i8] c"\0AInvalid LTL formula: unexpected end of string...\00", align 1

; Function Attrs: nounwind uwtable
define i32 @isUnexpectedEOS(ptr noundef %0, i32 noundef %1) #0 {
  %3 = alloca i32, align 4
  %4 = alloca ptr, align 8
  %5 = alloca i32, align 4
  store ptr %0, ptr %4, align 8, !tbaa !45
  store i32 %1, ptr %5, align 4, !tbaa !3
  %6 = load i32, ptr %5, align 4, !tbaa !3
  %7 = load ptr, ptr %4, align 8, !tbaa !45
  %8 = call i64 @strlen(ptr noundef %7) #11
  %9 = trunc i64 %8 to i32
  %10 = icmp sge i32 %6, %9
  br i1 %10, label %11, label %13

11:                                               ; preds = %2
  %12 = call i32 (ptr, ...) @printf(ptr noundef @.str.1)
  store i32 1, ptr %3, align 4
  br label %14

13:                                               ; preds = %2
  store i32 0, ptr %3, align 4
  br label %14

14:                                               ; preds = %13, %11
  %15 = load i32, ptr %3, align 4
  ret i32 %15
}