; Function Attrs: nofree nounwind uwtable
define range(i32 0, 2) i32 @isUnexpectedEOS(ptr noundef readonly captures(none) %0, i32 noundef %1) local_unnamed_addr #5 {
  %3 = tail call i64 @strlen(ptr noundef nonnull dereferenceable(1) %0) #24
  %4 = trunc i64 %3 to i32
  %.not = icmp slt i32 %1, %4
  br i1 %.not, label %7, label %5

5:                                                ; preds = %2
  %6 = tail call i32 (ptr, ...) @printf(ptr noundef nonnull dereferenceable(1) @.str.1)
  br label %7

7:                                                ; preds = %2, %5
  %.0 = phi i32 [ 1, %5 ], [ 0, %2 ]
  ret i32 %.0
}